; Function Attrs: nounwind uwtable
define internal noundef zeroext i1 @intorel_receive(ptr noundef %0, ptr noundef readonly captures(none) %1) #0 {
  %3 = getelementptr inbounds nuw i8, ptr %1, i64 40
  %4 = load ptr, ptr %3, align 8
  %5 = getelementptr inbounds nuw i8, ptr %4, i64 64
  %6 = load i8, ptr %5, align 8, !range !4, !noundef !5
  %7 = trunc nuw i8 %6 to i1
  br i1 %7, label %21, label %8

8:                                                ; preds = %2
  %9 = getelementptr inbounds nuw i8, ptr %1, i64 48
  %10 = load ptr, ptr %9, align 8
  %11 = getelementptr inbounds nuw i8, ptr %1, i64 68
  %12 = load i32, ptr %11, align 4
  %13 = getelementptr inbounds nuw i8, ptr %1, i64 72
  %14 = load i32, ptr %13, align 8
  %15 = getelementptr inbounds nuw i8, ptr %1, i64 80
  %16 = load ptr, ptr %15, align 8
  %17 = getelementptr inbounds nuw i8, ptr %10, i64 320
  %18 = load ptr, ptr %17, align 8
  %19 = getelementptr inbounds nuw i8, ptr %18, i64 160
  %20 = load ptr, ptr %19, align 8
  tail call void %20(ptr noundef %10, ptr noundef %0, i32 noundef %12, i32 noundef %14, ptr noundef %16) #8
  br label %21

21:                                               ; preds = %8, %2
  ret i1 true
}